target datalayout = "e-m:e-p270:32:32-p271:32:32-p272:64:64-i64:64-i128:128-f80:128-n8:16:32:64-S128"
target triple = "x86_64-pc-linux-gnu"

%struct.Abc_Frame_t_ = type { ptr, ptr, ptr, ptr, ptr, ptr, ptr, ptr, ptr, ptr, i32, i32, i32, i32, i32, ptr, float, float, i32, i32, ptr, ptr, ptr, double, double, ptr, ptr, ptr, ptr, ptr, ptr, ptr, ptr, ptr, ptr, ptr, ptr, float, ptr, i32, ptr, ptr, ptr, ptr, ptr, i32, i32, i32, i32, i32, i32, ptr, ptr, ptr, ptr, ptr, ptr, i32, i32, ptr, ptr, ptr, ptr, ptr, ptr, ptr, ptr, ptr, ptr, ptr, ptr, ptr, ptr, ptr, ptr, ptr, ptr, ptr, ptr, ptr, ptr, ptr, ptr, ptr, ptr, ptr, ptr, ptr, ptr }
%struct.Abc_Ntk_t_ = type { i32, i32, ptr, ptr, ptr, ptr, ptr, ptr, ptr, ptr, ptr, ptr, ptr, [11 x i32], i32, i32, i32, i32, ptr, i32, ptr, ptr, i32, i32, i32, double, i32, %struct.Vec_Int_t_, ptr, ptr, ptr, ptr, ptr, float, i32, ptr, ptr, ptr, ptr, ptr, ptr, ptr, ptr, ptr, ptr, ptr, ptr, ptr, ptr, ptr, ptr, ptr, ptr, ptr, ptr, ptr, ptr }
%struct.Vec_Int_t_ = type { i32, i32, ptr }

@globalUtilOptind = external global i32, align 4
@.str.113 = private unnamed_addr constant [4 x i8] c"yes\00", align 1
@.str.114 = private unnamed_addr constant [3 x i8] c"no\00", align 1
@.str.118 = private unnamed_addr constant [38 x i8] c"\09-h     : prints the command summary\0A\00", align 1
@.str.119 = private unnamed_addr constant [38 x i8] c"\09file   : the name of a file to read\0A\00", align 1
@.str.142 = private unnamed_addr constant [16 x i8] c"Empty network.\0A\00", align 1
@.str.161 = private unnamed_addr constant [48 x i8] c"\09         reads the network in equation format\0A\00", align 1
@.str.162 = private unnamed_addr constant [3 x i8] c"vh\00", align 1
@.str.163 = private unnamed_addr constant [31 x i8] c"usage: read_fins [-vh] <file>\0A\00", align 1
@.str.164 = private unnamed_addr constant [49 x i8] c"\09-v     : enable verbose output [default = %s].\0A\00", align 1

; Function Attrs: inlinehint nounwind uwtable
define internal void @Vec_IntFreeP(ptr noundef %0) #3 {
  %2 = alloca ptr, align 8
  store ptr %0, ptr %2, align 8, !tbaa !168
  %3 = load ptr, ptr %2, align 8, !tbaa !168
  %4 = load ptr, ptr %3, align 8, !tbaa !94
  %5 = icmp eq ptr %4, null
  br i1 %5, label %6, label %7

6:                                                ; preds = %1
  br label %32

7:                                                ; preds = %1
  %8 = load ptr, ptr %2, align 8, !tbaa !168
  %9 = load ptr, ptr %8, align 8, !tbaa !94
  %10 = getelementptr inbounds nuw %struct.Vec_Int_t_, ptr %9, i32 0, i32 2
  %11 = load ptr, ptr %10, align 8, !tbaa !130
  %12 = icmp ne ptr %11, null
  br i1 %12, label %13, label %21

13:                                               ; preds = %7
  %14 = load ptr, ptr %2, align 8, !tbaa !168
  %15 = load ptr, ptr %14, align 8, !tbaa !94
  %16 = getelementptr inbounds nuw %struct.Vec_Int_t_, ptr %15, i32 0, i32 2
  %17 = load ptr, ptr %16, align 8, !tbaa !130
  call void @free(ptr noundef %17) #11
  %18 = load ptr, ptr %2, align 8, !tbaa !168
  %19 = load ptr, ptr %18, align 8, !tbaa !94
  %20 = getelementptr inbounds nuw %struct.Vec_Int_t_, ptr %19, i32 0, i32 2
  store ptr null, ptr %20, align 8, !tbaa !130
  br label %22

21:                                               ; preds = %7
  br label %22

22:                                               ; preds = %21, %13
  %23 = load ptr, ptr %2, align 8, !tbaa !168
  %24 = load ptr, ptr %23, align 8, !tbaa !94
  %25 = icmp ne ptr %24, null
  br i1 %25, label %26, label %30

26:                                               ; preds = %22
  %27 = load ptr, ptr %2, align 8, !tbaa !168
  %28 = load ptr, ptr %27, align 8, !tbaa !94
  call void @free(ptr noundef %28) #11
  %29 = load ptr, ptr %2, align 8, !tbaa !168
  store ptr null, ptr %29, align 8, !tbaa !94
  br label %31

30:                                               ; preds = %22
  br label %31

31:                                               ; preds = %30, %26
  br label %32

32:                                               ; preds = %31, %6
  ret void
}

; Function Attrs: nounwind uwtable
define internal i32 @IoCommandReadFins(ptr noundef %0, i32 noundef %1, ptr noundef %2) #0 {
  %4 = alloca i32, align 4
  %5 = alloca ptr, align 8
  %6 = alloca i32, align 4
  %7 = alloca ptr, align 8
  %8 = alloca ptr, align 8
  %9 = alloca ptr, align 8
  %10 = alloca i32, align 4
  %11 = alloca i32, align 4
  %12 = alloca i32, align 4
  store ptr %0, ptr %5, align 8, !tbaa !3
  store i32 %1, ptr %6, align 4, !tbaa !8
  store ptr %2, ptr %7, align 8, !tbaa !10
  call void @llvm.lifetime.start.p0(i64 8, ptr %8) #11
  %13 = load ptr, ptr %5, align 8, !tbaa !3
  %14 = call ptr @Abc_FrameReadNtk(ptr noundef %13)
  store ptr %14, ptr %8, align 8, !tbaa !18
  call void @llvm.lifetime.start.p0(i64 8, ptr %9) #11
  call void @llvm.lifetime.start.p0(i64 4, ptr %10) #11
  call void @llvm.lifetime.start.p0(i64 4, ptr %11) #11
  store i32 0, ptr %11, align 4, !tbaa !8
  call void (...) @Extra_UtilGetoptReset()
  br label %15

15:                                               ; preds = %27, %3
  %16 = load i32, ptr %6, align 4, !tbaa !8
  %17 = load ptr, ptr %7, align 8, !tbaa !10
  %18 = call i32 @Extra_UtilGetopt(i32 noundef %16, ptr noundef %17, ptr noundef @.str.162)
  store i32 %18, ptr %10, align 4, !tbaa !8
  %19 = icmp ne i32 %18, -1
  br i1 %19, label %20, label %28

20:                                               ; preds = %15
  %21 = load i32, ptr %10, align 4, !tbaa !8
  switch i32 %21, label %26 [
    i32 118, label %22
    i32 104, label %25
  ]

22:                                               ; preds = %20
  %23 = load i32, ptr %11, align 4, !tbaa !8
  %24 = xor i32 %23, 1
  store i32 %24, ptr %11, align 4, !tbaa !8
  br label %27

25:                                               ; preds = %20
  br label %52

26:                                               ; preds = %20
  br label %52

27:                                               ; preds = %22
  br label %15, !llvm.loop !54

28:                                               ; preds = %15
  %29 = load i32, ptr %6, align 4, !tbaa !8
  %30 = load i32, ptr @globalUtilOptind, align 4, !tbaa !8
  %31 = add nsw i32 %30, 1
  %32 = icmp ne i32 %29, %31
  br i1 %32, label %33, label %34

33:                                               ; preds = %28
  br label %52

34:                                               ; preds = %28
  %35 = load ptr, ptr %7, align 8, !tbaa !10
  %36 = load i32, ptr @globalUtilOptind, align 4, !tbaa !8
  %37 = sext i32 %36 to i64
  %38 = getelementptr inbounds ptr, ptr %35, i64 %37
  %39 = load ptr, ptr %38, align 8, !tbaa !14
  store ptr %39, ptr %9, align 8, !tbaa !14
  %40 = load ptr, ptr %8, align 8, !tbaa !18
  %41 = icmp eq ptr %40, null
  br i1 %41, label %42, label %43

42:                                               ; preds = %34
  call void (i32, ptr, ...) @Abc_Print(i32 noundef -1, ptr noundef @.str.142)
  store i32 1, ptr %4, align 4
  store i32 1, ptr %12, align 4
  br label %76

43:                                               ; preds = %34
  %44 = load ptr, ptr %8, align 8, !tbaa !18
  %45 = getelementptr inbounds nuw %struct.Abc_Ntk_t_, ptr %44, i32 0, i32 55
  call void @Vec_IntFreeP(ptr noundef %45)
  %46 = load ptr, ptr %8, align 8, !tbaa !18
  %47 = load ptr, ptr %9, align 8, !tbaa !14
  %48 = load i32, ptr %11, align 4, !tbaa !8
  %49 = call ptr @Io_ReadFins(ptr noundef %46, ptr noundef %47, i32 noundef %48)
  %50 = load ptr, ptr %8, align 8, !tbaa !18
  %51 = getelementptr inbounds nuw %struct.Abc_Ntk_t_, ptr %50, i32 0, i32 55
  store ptr %49, ptr %51, align 8, !tbaa !55
  store i32 0, ptr %4, align 4
  store i32 1, ptr %12, align 4
  br label %76

52:                                               ; preds = %33, %26, %25
  %53 = load ptr, ptr %5, align 8, !tbaa !3
  %54 = getelementptr inbounds nuw %struct.Abc_Frame_t_, ptr %53, i32 0, i32 21
  %55 = load ptr, ptr %54, align 8, !tbaa !24
  %56 = call i32 (ptr, ptr, ...) @fprintf(ptr noundef %55, ptr noundef @.str.163) #11
  %57 = load ptr, ptr %5, align 8, !tbaa !3
  %58 = getelementptr inbounds nuw %struct.Abc_Frame_t_, ptr %57, i32 0, i32 21
  %59 = load ptr, ptr %58, align 8, !tbaa !24
  %60 = call i32 (ptr, ptr, ...) @fprintf(ptr noundef %59, ptr noundef @.str.161) #11
  %61 = load ptr, ptr %5, align 8, !tbaa !3
  %62 = getelementptr inbounds nuw %struct.Abc_Frame_t_, ptr %61, i32 0, i32 21
  %63 = load ptr, ptr %62, align 8, !tbaa !24
  %64 = load i32, ptr %11, align 4, !tbaa !8
  %65 = icmp ne i32 %64, 0
  %66 = select i1 %65, ptr @.str.113, ptr @.str.114
  %67 = call i32 (ptr, ptr, ...) @fprintf(ptr noundef %63, ptr noundef @.str.164, ptr noundef %66) #11
  %68 = load ptr, ptr %5, align 8, !tbaa !3
  %69 = getelementptr inbounds nuw %struct.Abc_Frame_t_, ptr %68, i32 0, i32 21
  %70 = load ptr, ptr %69, align 8, !tbaa !24
  %71 = call i32 (ptr, ptr, ...) @fprintf(ptr noundef %70, ptr noundef @.str.118) #11
  %72 = load ptr, ptr %5, align 8, !tbaa !3
  %73 = getelementptr inbounds nuw %struct.Abc_Frame_t_, ptr %72, i32 0, i32 21
  %74 = load ptr, ptr %73, align 8, !tbaa !24
  %75 = call i32 (ptr, ptr, ...) @fprintf(ptr noundef %74, ptr noundef @.str.119) #11
  store i32 1, ptr %4, align 4
  store i32 1, ptr %12, align 4
  br label %76

76:                                               ; preds = %52, %43, %42
  call void @llvm.lifetime.end.p0(i64 4, ptr %11) #11
  call void @llvm.lifetime.end.p0(i64 4, ptr %10) #11
  call void @llvm.lifetime.end.p0(i64 8, ptr %9) #11
  call void @llvm.lifetime.end.p0(i64 8, ptr %8) #11
  %77 = load i32, ptr %4, align 4
  ret i32 %77
}