; Function Attrs: nounwind uwtable
define internal range(i32 0, 2) i32 @IoCommandReadFins(ptr noundef %0, i32 noundef %1, ptr noundef %2) #0 {
  %4 = tail call ptr @Abc_FrameReadNtk(ptr noundef %0) #18
  tail call void (...) @Extra_UtilGetoptReset() #18
  br label %5

5:                                                ; preds = %7, %3
  %.0 = phi i32 [ 0, %3 ], [ %8, %7 ]
  %6 = tail call i32 @Extra_UtilGetopt(i32 noundef %1, ptr noundef %2, ptr noundef nonnull @.str.162) #18
  switch i32 %6, label %.loopexit [
    i32 -1, label %9
    i32 118, label %7
  ]

7:                                                ; preds = %5
  %8 = xor i32 %.0, 1
  br label %5, !llvm.loop !57

9:                                                ; preds = %5
  %10 = load i32, ptr @globalUtilOptind, align 4, !tbaa !3
  %11 = add nsw i32 %10, 1
  %.not22 = icmp eq i32 %1, %11
  br i1 %.not22, label %12, label %.loopexit

12:                                               ; preds = %9
  %13 = icmp eq ptr %4, null
  br i1 %13, label %14, label %15

14:                                               ; preds = %12
  tail call void (i32, ptr, ...) @Abc_Print(i32 noundef -1, ptr noundef nonnull @.str.142)
  br label %42

15:                                               ; preds = %12
  %16 = sext i32 %10 to i64
  %17 = getelementptr inbounds ptr, ptr %2, i64 %16
  %18 = load ptr, ptr %17, align 8, !tbaa !9
  %19 = getelementptr inbounds nuw i8, ptr %4, i64 448
  %20 = load ptr, ptr %19, align 8, !tbaa !58
  %21 = icmp eq ptr %20, null
  br i1 %21, label %Vec_IntFreeP.exit, label %22

22:                                               ; preds = %15
  %23 = getelementptr inbounds nuw i8, ptr %20, i64 8
  %24 = load ptr, ptr %23, align 8, !tbaa !59
  %.not.i = icmp eq ptr %24, null
  br i1 %.not.i, label %27, label %.thread.i

.thread.i:                                        ; preds = %22
  tail call void @free(ptr noundef nonnull %24) #18
  %25 = load ptr, ptr %19, align 8, !tbaa !58
  %26 = getelementptr inbounds nuw i8, ptr %25, i64 8
  store ptr null, ptr %26, align 8, !tbaa !59
  br label %27

27:                                               ; preds = %.thread.i, %22
  %28 = phi ptr [ %25, %.thread.i ], [ %20, %22 ]
  tail call void @free(ptr noundef nonnull %28) #18
  store ptr null, ptr %19, align 8, !tbaa !58
  br label %Vec_IntFreeP.exit

Vec_IntFreeP.exit:                                ; preds = %15, %27
  %29 = tail call ptr @Io_ReadFins(ptr noundef nonnull %4, ptr noundef %18, i32 noundef %.0) #18
  store ptr %29, ptr %19, align 8, !tbaa !60
  br label %42

.loopexit:                                        ; preds = %5, %9
  %30 = getelementptr inbounds nuw i8, ptr %0, i64 136
  %31 = load ptr, ptr %30, align 8, !tbaa !34
  %32 = tail call i64 @fwrite(ptr nonnull @.str.163, i64 30, i64 1, ptr %31)
  %33 = load ptr, ptr %30, align 8, !tbaa !34
  %34 = tail call i64 @fwrite(ptr nonnull @.str.161, i64 47, i64 1, ptr %33)
  %35 = load ptr, ptr %30, align 8, !tbaa !34
  %.not23 = icmp eq i32 %.0, 0
  %36 = select i1 %.not23, ptr @.str.114, ptr @.str.113
  %37 = tail call i32 (ptr, ptr, ...) @fprintf(ptr noundef %35, ptr noundef nonnull @.str.164, ptr noundef nonnull %36) #18
  %38 = load ptr, ptr %30, align 8, !tbaa !34
  %39 = tail call i64 @fwrite(ptr nonnull @.str.118, i64 37, i64 1, ptr %38)
  %40 = load ptr, ptr %30, align 8, !tbaa !34
  %41 = tail call i64 @fwrite(ptr nonnull @.str.119, i64 37, i64 1, ptr %40)
  br label %42

42:                                               ; preds = %.loopexit, %Vec_IntFreeP.exit, %14
  %.019 = phi i32 [ 1, %.loopexit ], [ 1, %14 ], [ 0, %Vec_IntFreeP.exit ]
  ret i32 %.019
}